target datalayout = "e-m:e-p270:32:32-p271:32:32-p272:64:64-i64:64-i128:128-f80:128-n8:16:32:64-S128"
target triple = "x86_64-pc-linux-gnu"

; Function Attrs: nounwind uwtable
define void @dt_iop_image_sub_image(ptr noundef %0, ptr noundef %1, i64 noundef %2, i64 noundef %3, i64 noundef %4) #0 {
  %6 = alloca ptr, align 8
  %7 = alloca ptr, align 8
  %8 = alloca i64, align 8
  %9 = alloca i64, align 8
  %10 = alloca i64, align 8
  %11 = alloca i64, align 8
  %12 = alloca i64, align 8
  store ptr %0, ptr %6, align 8, !tbaa !17
  store ptr %1, ptr %7, align 8, !tbaa !17
  store i64 %2, ptr %8, align 8, !tbaa !21
  store i64 %3, ptr %9, align 8, !tbaa !21
  store i64 %4, ptr %10, align 8, !tbaa !21
  call void @llvm.lifetime.start.p0(i64 8, ptr %11) #9
  %13 = load i64, ptr %8, align 8, !tbaa !21
  %14 = load i64, ptr %9, align 8, !tbaa !21
  %15 = mul i64 %13, %14
  %16 = load i64, ptr %10, align 8, !tbaa !21
  %17 = mul i64 %15, %16
  store i64 %17, ptr %11, align 8, !tbaa !21
  call void @llvm.lifetime.start.p0(i64 8, ptr %12) #9
  store i64 0, ptr %12, align 8, !tbaa !21
  br label %18

18:                                               ; preds = %33, %5
  %19 = load i64, ptr %12, align 8, !tbaa !21
  %20 = load i64, ptr %11, align 8, !tbaa !21
  %21 = icmp ult i64 %19, %20
  br i1 %21, label %23, label %22

22:                                               ; preds = %18
  call void @llvm.lifetime.end.p0(i64 8, ptr %12) #9
  br label %36

23:                                               ; preds = %18
  %24 = load ptr, ptr %7, align 8, !tbaa !17
  %25 = load i64, ptr %12, align 8, !tbaa !21
  %26 = getelementptr inbounds nuw float, ptr %24, i64 %25
  %27 = load float, ptr %26, align 4, !tbaa !29
  %28 = load ptr, ptr %6, align 8, !tbaa !17
  %29 = load i64, ptr %12, align 8, !tbaa !21
  %30 = getelementptr inbounds nuw float, ptr %28, i64 %29
  %31 = load float, ptr %30, align 4, !tbaa !29
  %32 = fsub reassoc nsz arcp contract afn float %31, %27
  store float %32, ptr %30, align 4, !tbaa !29
  br label %33

33:                                               ; preds = %23
  %34 = load i64, ptr %12, align 8, !tbaa !21
  %35 = add i64 %34, 1
  store i64 %35, ptr %12, align 8, !tbaa !21
  br label %18

36:                                               ; preds = %22
  call void @llvm.lifetime.end.p0(i64 8, ptr %11) #9
  ret void
}